target datalayout = "e-m:e-p270:32:32-p271:32:32-p272:64:64-i64:64-i128:128-f80:128-n8:16:32:64-S128"
target triple = "x86_64-pc-linux-gnu"

%struct.FT_BBox_ = type { i64, i64, i64, i64 }
%struct.FT_ListRec_ = type { ptr, ptr }
%struct.FT_Generic_ = type { ptr, ptr }
%struct.CFF_FontRec_ = type { ptr, ptr, ptr, i64, i32, i32, i8, i8, i8, i32, i8, %struct.CFF_IndexRec_, %struct.CFF_IndexRec_, %struct.CFF_IndexRec_, %struct.CFF_EncodingRec_, %struct.CFF_CharsetRec_, %struct.CFF_IndexRec_, %struct.CFF_IndexRec_, %struct.CFF_IndexRec_, %struct.CFF_IndexRec_, ptr, ptr, i32, ptr, ptr, i64, %struct.CFF_SubFontRec_, i32, [256 x ptr], %struct.CFF_FDSelectRec_, ptr, ptr, ptr, ptr, ptr, ptr, %struct.FT_Generic_, %struct.CFF_VStoreRec_, ptr }
%struct.CFF_EncodingRec_ = type { i32, i64, i32, [256 x i16], [256 x i16] }
%struct.CFF_CharsetRec_ = type { i32, i64, ptr, ptr, i32, i32 }
%struct.CFF_IndexRec_ = type { ptr, i64, i32, i32, i8, i64, i64, ptr, ptr }
%struct.CFF_SubFontRec_ = type { %struct.CFF_FontRecDictRec_, %struct.CFF_PrivateRec_, %struct.CFF_BlendRec_, i32, ptr, ptr, ptr, i32, i32, %struct.CFF_IndexRec_, ptr, i32 }
%struct.CFF_FontRecDictRec_ = type { i32, i32, i32, i32, i32, i32, i8, i64, i64, i64, i32, i32, %struct.FT_Matrix_, i8, i64, %struct.FT_Vector_, i64, %struct.FT_BBox_, i64, i64, i64, i64, i64, i64, i64, i32, i32, i32, i64, i64, i64, i64, i64, i64, i64, i64, i32, i16, i16, i64, i32 }
%struct.FT_Matrix_ = type { i64, i64, i64, i64 }
%struct.FT_Vector_ = type { i64, i64 }
%struct.CFF_PrivateRec_ = type { i8, i8, i8, i8, [14 x i64], [10 x i64], [14 x i64], [10 x i64], i64, i64, i64, i64, i64, i8, i8, [13 x i64], [13 x i64], i8, i64, i32, i32, i64, i64, i64, i64, i64, i32, ptr }
%struct.CFF_BlendRec_ = type { i8, i8, ptr, i32, i32, ptr, i32, ptr }
%struct.CFF_FDSelectRec_ = type { i8, i32, ptr, i32, i32, i32, i8 }
%struct.CFF_VStoreRec_ = type { i32, ptr, i16, i32, ptr }
%struct.CFF_ParserRec_ = type { ptr, ptr, ptr, ptr, ptr, ptr, i32, i32, ptr, i16, i16 }
%struct.FT_StreamRec_ = type { ptr, i64, i64, %union.FT_StreamDesc_, %union.FT_StreamDesc_, ptr, ptr, ptr, ptr, ptr }
%union.FT_StreamDesc_ = type { i64 }
%struct.FT_LibraryRec_ = type { ptr, i32, i32, i32, i32, [32 x ptr], %struct.FT_ListRec_, ptr, ptr, [4 x ptr], [3 x %struct.FT_Vector_], i32 }

; Function Attrs: nounwind uwtable
define internal void @cff_parser_done(ptr noundef %0) #0 {
  %2 = alloca ptr, align 8
  %3 = alloca ptr, align 8
  store ptr %0, ptr %2, align 8
  %4 = load ptr, ptr %2, align 8
  %5 = getelementptr inbounds %struct.CFF_ParserRec_, ptr %4, i32 0, i32 0
  %6 = load ptr, ptr %5, align 8
  %7 = getelementptr inbounds %struct.FT_LibraryRec_, ptr %6, i32 0, i32 0
  %8 = load ptr, ptr %7, align 8
  store ptr %8, ptr %3, align 8
  br label %9

9:                                                ; preds = %1
  %10 = load ptr, ptr %3, align 8
  %11 = load ptr, ptr %2, align 8
  %12 = getelementptr inbounds %struct.CFF_ParserRec_, ptr %11, i32 0, i32 4
  %13 = load ptr, ptr %12, align 8
  call void @ft_mem_free(ptr noundef %10, ptr noundef %13)
  %14 = load ptr, ptr %2, align 8
  %15 = getelementptr inbounds %struct.CFF_ParserRec_, ptr %14, i32 0, i32 4
  store ptr null, ptr %15, align 8
  br label %16

16:                                               ; preds = %9
  ret void
}

; Function Attrs: nounwind uwtable
define internal void @cff_blend_clear(ptr noundef %0) #0 {
  %2 = alloca ptr, align 8
  store ptr %0, ptr %2, align 8
  %3 = load ptr, ptr %2, align 8
  %4 = getelementptr inbounds %struct.CFF_SubFontRec_, ptr %3, i32 0, i32 5
  %5 = load ptr, ptr %4, align 8
  %6 = load ptr, ptr %2, align 8
  %7 = getelementptr inbounds %struct.CFF_SubFontRec_, ptr %6, i32 0, i32 6
  store ptr %5, ptr %7, align 8
  %8 = load ptr, ptr %2, align 8
  %9 = getelementptr inbounds %struct.CFF_SubFontRec_, ptr %8, i32 0, i32 7
  store i32 0, ptr %9, align 8
  ret void
}

; Function Attrs: nounwind uwtable
define internal i32 @cff_parser_init(ptr noundef %0, i32 noundef %1, ptr noundef %2, ptr noundef %3, i32 noundef %4, i16 noundef zeroext %5, i16 noundef zeroext %6) #0 {
  %8 = alloca ptr, align 8
  %9 = alloca i32, align 4
  %10 = alloca ptr, align 8
  %11 = alloca ptr, align 8
  %12 = alloca i32, align 4
  %13 = alloca i16, align 2
  %14 = alloca i16, align 2
  %15 = alloca ptr, align 8
  %16 = alloca i32, align 4
  store ptr %0, ptr %8, align 8
  store i32 %1, ptr %9, align 4
  store ptr %2, ptr %10, align 8
  store ptr %3, ptr %11, align 8
  store i32 %4, ptr %12, align 4
  store i16 %5, ptr %13, align 2
  store i16 %6, ptr %14, align 2
  %17 = load ptr, ptr %11, align 8
  %18 = getelementptr inbounds %struct.FT_LibraryRec_, ptr %17, i32 0, i32 0
  %19 = load ptr, ptr %18, align 8
  store ptr %19, ptr %15, align 8
  %20 = load ptr, ptr %8, align 8
  call void @llvm.memset.p0.i64(ptr align 8 %20, i8 0, i64 72, i1 false)
  %21 = load i32, ptr %9, align 4
  %22 = load ptr, ptr %8, align 8
  %23 = getelementptr inbounds %struct.CFF_ParserRec_, ptr %22, i32 0, i32 7
  store i32 %21, ptr %23, align 4
  %24 = load ptr, ptr %10, align 8
  %25 = load ptr, ptr %8, align 8
  %26 = getelementptr inbounds %struct.CFF_ParserRec_, ptr %25, i32 0, i32 8
  store ptr %24, ptr %26, align 8
  %27 = load ptr, ptr %11, align 8
  %28 = load ptr, ptr %8, align 8
  %29 = getelementptr inbounds %struct.CFF_ParserRec_, ptr %28, i32 0, i32 0
  store ptr %27, ptr %29, align 8
  %30 = load i16, ptr %13, align 2
  %31 = load ptr, ptr %8, align 8
  %32 = getelementptr inbounds %struct.CFF_ParserRec_, ptr %31, i32 0, i32 9
  store i16 %30, ptr %32, align 8
  %33 = load i16, ptr %14, align 2
  %34 = load ptr, ptr %8, align 8
  %35 = getelementptr inbounds %struct.CFF_ParserRec_, ptr %34, i32 0, i32 10
  store i16 %33, ptr %35, align 2
  %36 = load ptr, ptr %15, align 8
  %37 = load i32, ptr %12, align 4
  %38 = zext i32 %37 to i64
  %39 = call ptr @ft_mem_qrealloc(ptr noundef %36, i64 noundef 8, i64 noundef 0, i64 noundef %38, ptr noundef null, ptr noundef %16)
  %40 = load ptr, ptr %8, align 8
  %41 = getelementptr inbounds %struct.CFF_ParserRec_, ptr %40, i32 0, i32 4
  store ptr %39, ptr %41, align 8
  %42 = load i32, ptr %16, align 4
  %43 = icmp ne i32 %42, 0
  br i1 %43, label %44, label %45

44:                                               ; preds = %7
  br label %54

45:                                               ; preds = %7
  %46 = load i32, ptr %12, align 4
  %47 = load ptr, ptr %8, align 8
  %48 = getelementptr inbounds %struct.CFF_ParserRec_, ptr %47, i32 0, i32 6
  store i32 %46, ptr %48, align 8
  %49 = load ptr, ptr %8, align 8
  %50 = getelementptr inbounds %struct.CFF_ParserRec_, ptr %49, i32 0, i32 4
  %51 = load ptr, ptr %50, align 8
  %52 = load ptr, ptr %8, align 8
  %53 = getelementptr inbounds %struct.CFF_ParserRec_, ptr %52, i32 0, i32 5
  store ptr %51, ptr %53, align 8
  br label %54

54:                                               ; preds = %45, %44
  %55 = load i32, ptr %16, align 4
  ret i32 %55
}

; Function Attrs: nounwind uwtable
define internal i32 @cff_load_private_dict(ptr noundef %0, ptr noundef %1, i32 noundef %2, ptr noundef %3) #0 {
  %5 = alloca ptr, align 8
  %6 = alloca ptr, align 8
  %7 = alloca i32, align 4
  %8 = alloca ptr, align 8
  %9 = alloca i32, align 4
  %10 = alloca %struct.CFF_ParserRec_, align 8
  %11 = alloca ptr, align 8
  %12 = alloca ptr, align 8
  %13 = alloca ptr, align 8
  %14 = alloca i32, align 4
  store ptr %0, ptr %5, align 8
  store ptr %1, ptr %6, align 8
  store i32 %2, ptr %7, align 4
  store ptr %3, ptr %8, align 8
  store i32 0, ptr %9, align 4
  %15 = load ptr, ptr %6, align 8
  %16 = getelementptr inbounds %struct.CFF_SubFontRec_, ptr %15, i32 0, i32 0
  store ptr %16, ptr %11, align 8
  %17 = load ptr, ptr %6, align 8
  %18 = getelementptr inbounds %struct.CFF_SubFontRec_, ptr %17, i32 0, i32 1
  store ptr %18, ptr %12, align 8
  %19 = load ptr, ptr %5, align 8
  %20 = getelementptr inbounds %struct.CFF_FontRec_, ptr %19, i32 0, i32 1
  %21 = load ptr, ptr %20, align 8
  store ptr %21, ptr %13, align 8
  %22 = load ptr, ptr %5, align 8
  %23 = load ptr, ptr %6, align 8
  %24 = getelementptr inbounds %struct.CFF_SubFontRec_, ptr %23, i32 0, i32 2
  %25 = getelementptr inbounds %struct.CFF_BlendRec_, ptr %24, i32 0, i32 2
  store ptr %22, ptr %25, align 8
  %26 = load ptr, ptr %6, align 8
  %27 = getelementptr inbounds %struct.CFF_SubFontRec_, ptr %26, i32 0, i32 2
  %28 = getelementptr inbounds %struct.CFF_BlendRec_, ptr %27, i32 0, i32 1
  store i8 0, ptr %28, align 1
  %29 = load ptr, ptr %11, align 8
  %30 = getelementptr inbounds %struct.CFF_FontRecDictRec_, ptr %29, i32 0, i32 22
  %31 = load i64, ptr %30, align 8
  %32 = icmp ne i64 %31, 0
  br i1 %32, label %33, label %38

33:                                               ; preds = %4
  %34 = load ptr, ptr %11, align 8
  %35 = getelementptr inbounds %struct.CFF_FontRecDictRec_, ptr %34, i32 0, i32 23
  %36 = load i64, ptr %35, align 8
  %37 = icmp ne i64 %36, 0
  br i1 %37, label %39, label %38

38:                                               ; preds = %33, %4
  br label %188

39:                                               ; preds = %33
  %40 = load ptr, ptr %12, align 8
  call void @llvm.memset.p0.i64(ptr align 8 %40, i8 0, i64 728, i1 false)
  %41 = load ptr, ptr %12, align 8
  %42 = getelementptr inbounds %struct.CFF_PrivateRec_, ptr %41, i32 0, i32 9
  store i64 7, ptr %42, align 8
  %43 = load ptr, ptr %12, align 8
  %44 = getelementptr inbounds %struct.CFF_PrivateRec_, ptr %43, i32 0, i32 10
  store i64 1, ptr %44, align 8
  %45 = load ptr, ptr %12, align 8
  %46 = getelementptr inbounds %struct.CFF_PrivateRec_, ptr %45, i32 0, i32 19
  store i32 -1, ptr %46, align 8
  %47 = load ptr, ptr %12, align 8
  %48 = getelementptr inbounds %struct.CFF_PrivateRec_, ptr %47, i32 0, i32 21
  store i64 3932, ptr %48, align 8
  %49 = load ptr, ptr %12, align 8
  %50 = getelementptr inbounds %struct.CFF_PrivateRec_, ptr %49, i32 0, i32 8
  store i64 2596864, ptr %50, align 8
  %51 = load ptr, ptr %6, align 8
  %52 = load ptr, ptr %12, align 8
  %53 = getelementptr inbounds %struct.CFF_PrivateRec_, ptr %52, i32 0, i32 27
  store ptr %51, ptr %53, align 8
  %54 = load i32, ptr %7, align 4
  %55 = load ptr, ptr %6, align 8
  %56 = getelementptr inbounds %struct.CFF_SubFontRec_, ptr %55, i32 0, i32 3
  store i32 %54, ptr %56, align 8
  %57 = load ptr, ptr %8, align 8
  %58 = load ptr, ptr %6, align 8
  %59 = getelementptr inbounds %struct.CFF_SubFontRec_, ptr %58, i32 0, i32 4
  store ptr %57, ptr %59, align 8
  %60 = load ptr, ptr %5, align 8
  %61 = getelementptr inbounds %struct.CFF_FontRec_, ptr %60, i32 0, i32 10
  %62 = load i8, ptr %61, align 8
  %63 = zext i8 %62 to i32
  %64 = icmp ne i32 %63, 0
  br i1 %64, label %65, label %72

65:                                               ; preds = %39
  %66 = load ptr, ptr %5, align 8
  %67 = getelementptr inbounds %struct.CFF_FontRec_, ptr %66, i32 0, i32 26
  %68 = getelementptr inbounds %struct.CFF_SubFontRec_, ptr %67, i32 0, i32 0
  %69 = getelementptr inbounds %struct.CFF_FontRecDictRec_, ptr %68, i32 0, i32 40
  %70 = load i32, ptr %69, align 8
  %71 = add i32 %70, 1
  br label %73

72:                                               ; preds = %39
  br label %73

73:                                               ; preds = %72, %65
  %74 = phi i32 [ %71, %65 ], [ 97, %72 ]
  store i32 %74, ptr %14, align 4
  %75 = load ptr, ptr %5, align 8
  %76 = getelementptr inbounds %struct.CFF_FontRec_, ptr %75, i32 0, i32 10
  %77 = load i8, ptr %76, align 8
  %78 = zext i8 %77 to i32
  %79 = icmp ne i32 %78, 0
  %80 = select i1 %79, i32 20480, i32 8192
  %81 = load ptr, ptr %12, align 8
  %82 = load ptr, ptr %5, align 8
  %83 = getelementptr inbounds %struct.CFF_FontRec_, ptr %82, i32 0, i32 0
  %84 = load ptr, ptr %83, align 8
  %85 = load i32, ptr %14, align 4
  %86 = load ptr, ptr %11, align 8
  %87 = getelementptr inbounds %struct.CFF_FontRecDictRec_, ptr %86, i32 0, i32 37
  %88 = load i16, ptr %87, align 4
  %89 = load ptr, ptr %11, align 8
  %90 = getelementptr inbounds %struct.CFF_FontRecDictRec_, ptr %89, i32 0, i32 38
  %91 = load i16, ptr %90, align 2
  %92 = call i32 @cff_parser_init(ptr noundef %10, i32 noundef %80, ptr noundef %81, ptr noundef %84, i32 noundef %85, i16 noundef zeroext %88, i16 noundef zeroext %91)
  %93 = icmp ne i32 %92, 0
  br i1 %93, label %94, label %95

94:                                               ; preds = %73
  br label %186

95:                                               ; preds = %73
  %96 = load ptr, ptr %13, align 8
  %97 = load ptr, ptr %5, align 8
  %98 = getelementptr inbounds %struct.CFF_FontRec_, ptr %97, i32 0, i32 3
  %99 = load i64, ptr %98, align 8
  %100 = load ptr, ptr %11, align 8
  %101 = getelementptr inbounds %struct.CFF_FontRecDictRec_, ptr %100, i32 0, i32 22
  %102 = load i64, ptr %101, align 8
  %103 = add i64 %99, %102
  %104 = call i32 @FT_Stream_Seek(ptr noundef %96, i64 noundef %103)
  store i32 %104, ptr %9, align 4
  %105 = icmp ne i32 %104, 0
  br i1 %105, label %113, label %106

106:                                              ; preds = %95
  %107 = load ptr, ptr %13, align 8
  %108 = load ptr, ptr %11, align 8
  %109 = getelementptr inbounds %struct.CFF_FontRecDictRec_, ptr %108, i32 0, i32 23
  %110 = load i64, ptr %109, align 8
  %111 = call i32 @FT_Stream_EnterFrame(ptr noundef %107, i64 noundef %110)
  store i32 %111, ptr %9, align 4
  %112 = icmp ne i32 %111, 0
  br i1 %112, label %113, label %114

113:                                              ; preds = %106, %95
  br label %186

114:                                              ; preds = %106
  br label %115

115:                                              ; preds = %114
  br label %116

116:                                              ; preds = %115
  %117 = load ptr, ptr %13, align 8
  %118 = getelementptr inbounds %struct.FT_StreamRec_, ptr %117, i32 0, i32 8
  %119 = load ptr, ptr %118, align 8
  %120 = load ptr, ptr %13, align 8
  %121 = getelementptr inbounds %struct.FT_StreamRec_, ptr %120, i32 0, i32 9
  %122 = load ptr, ptr %121, align 8
  %123 = call i32 @cff_parser_run(ptr noundef %10, ptr noundef %119, ptr noundef %122)
  store i32 %123, ptr %9, align 4
  %124 = load ptr, ptr %13, align 8
  call void @FT_Stream_ExitFrame(ptr noundef %124)
  %125 = load i32, ptr %9, align 4
  %126 = icmp ne i32 %125, 0
  br i1 %126, label %127, label %128

127:                                              ; preds = %116
  br label %186

128:                                              ; preds = %116
  %129 = load ptr, ptr %12, align 8
  %130 = getelementptr inbounds %struct.CFF_PrivateRec_, ptr %129, i32 0, i32 0
  %131 = load i8, ptr %130, align 8
  %132 = zext i8 %131 to i32
  %133 = and i32 %132, -2
  %134 = trunc i32 %133 to i8
  store i8 %134, ptr %130, align 8
  %135 = load ptr, ptr %12, align 8
  %136 = getelementptr inbounds %struct.CFF_PrivateRec_, ptr %135, i32 0, i32 22
  %137 = load i64, ptr %136, align 8
  %138 = icmp slt i64 %137, 0
  br i1 %138, label %139, label %146

139:                                              ; preds = %128
  %140 = load ptr, ptr %12, align 8
  %141 = getelementptr inbounds %struct.CFF_PrivateRec_, ptr %140, i32 0, i32 22
  %142 = load i64, ptr %141, align 8
  %143 = sub nsw i64 0, %142
  %144 = load ptr, ptr %12, align 8
  %145 = getelementptr inbounds %struct.CFF_PrivateRec_, ptr %144, i32 0, i32 22
  store i64 %143, ptr %145, align 8
  br label %155

146:                                              ; preds = %128
  %147 = load ptr, ptr %12, align 8
  %148 = getelementptr inbounds %struct.CFF_PrivateRec_, ptr %147, i32 0, i32 22
  %149 = load i64, ptr %148, align 8
  %150 = icmp eq i64 %149, 0
  br i1 %150, label %151, label %154

151:                                              ; preds = %146
  %152 = load ptr, ptr %12, align 8
  %153 = getelementptr inbounds %struct.CFF_PrivateRec_, ptr %152, i32 0, i32 22
  store i64 987654321, ptr %153, align 8
  br label %154

154:                                              ; preds = %151, %146
  br label %155

155:                                              ; preds = %154, %139
  %156 = load ptr, ptr %12, align 8
  %157 = getelementptr inbounds %struct.CFF_PrivateRec_, ptr %156, i32 0, i32 9
  %158 = load i64, ptr %157, align 8
  %159 = icmp sgt i64 %158, 1000
  br i1 %159, label %165, label %160

160:                                              ; preds = %155
  %161 = load ptr, ptr %12, align 8
  %162 = getelementptr inbounds %struct.CFF_PrivateRec_, ptr %161, i32 0, i32 9
  %163 = load i64, ptr %162, align 8
  %164 = icmp slt i64 %163, 0
  br i1 %164, label %165, label %170

165:                                              ; preds = %160, %155
  br label %166

166:                                              ; preds = %165
  br label %167

167:                                              ; preds = %166
  %168 = load ptr, ptr %12, align 8
  %169 = getelementptr inbounds %struct.CFF_PrivateRec_, ptr %168, i32 0, i32 9
  store i64 7, ptr %169, align 8
  br label %170

170:                                              ; preds = %167, %160
  %171 = load ptr, ptr %12, align 8
  %172 = getelementptr inbounds %struct.CFF_PrivateRec_, ptr %171, i32 0, i32 10
  %173 = load i64, ptr %172, align 8
  %174 = icmp sgt i64 %173, 1000
  br i1 %174, label %180, label %175

175:                                              ; preds = %170
  %176 = load ptr, ptr %12, align 8
  %177 = getelementptr inbounds %struct.CFF_PrivateRec_, ptr %176, i32 0, i32 10
  %178 = load i64, ptr %177, align 8
  %179 = icmp slt i64 %178, 0
  br i1 %179, label %180, label %185

180:                                              ; preds = %175, %170
  br label %181

181:                                              ; preds = %180
  br label %182

182:                                              ; preds = %181
  %183 = load ptr, ptr %12, align 8
  %184 = getelementptr inbounds %struct.CFF_PrivateRec_, ptr %183, i32 0, i32 10
  store i64 1, ptr %184, align 8
  br label %185

185:                                              ; preds = %182, %175
  br label %186

186:                                              ; preds = %185, %127, %113, %94
  %187 = load ptr, ptr %6, align 8
  call void @cff_blend_clear(ptr noundef %187)
  call void @cff_parser_done(ptr noundef %10)
  br label %188

188:                                              ; preds = %186, %38
  %189 = load i32, ptr %9, align 4
  ret i32 %189
}