; Function Attrs: nounwind uwtable
define internal i32 @cff_load_private_dict(ptr noundef %0, ptr noundef %1, i32 noundef %2, ptr noundef %3) #4 {
  %5 = alloca i32, align 4
  %6 = alloca %struct.CFF_ParserRec_, align 8
  %7 = getelementptr inbounds i8, ptr %1, i64 328
  %8 = getelementptr inbounds i8, ptr %0, i64 8
  %9 = load ptr, ptr %8, align 8
  %10 = getelementptr inbounds i8, ptr %1, i64 1064
  store ptr %0, ptr %10, align 8
  %11 = getelementptr inbounds i8, ptr %1, i64 1057
  store i8 0, ptr %11, align 1
  %12 = getelementptr inbounds i8, ptr %1, i64 200
  %13 = load i64, ptr %12, align 8
  %.not = icmp eq i64 %13, 0
  br i1 %.not, label %88, label %14

14:                                               ; preds = %4
  %15 = getelementptr inbounds i8, ptr %1, i64 208
  %16 = load i64, ptr %15, align 8
  %.not58 = icmp eq i64 %16, 0
  br i1 %.not58, label %88, label %17

17:                                               ; preds = %14
  tail call void @llvm.memset.p0.i64(ptr noundef nonnull align 8 dereferenceable(728) %7, i8 0, i64 720, i1 false)
  %18 = getelementptr inbounds i8, ptr %1, i64 728
  store i64 7, ptr %18, align 8
  %19 = getelementptr inbounds i8, ptr %1, i64 736
  store i64 1, ptr %19, align 8
  %20 = getelementptr inbounds i8, ptr %1, i64 992
  store i32 -1, ptr %20, align 8
  %21 = getelementptr inbounds i8, ptr %1, i64 1000
  store i64 3932, ptr %21, align 8
  %22 = getelementptr inbounds i8, ptr %1, i64 720
  store i64 2596864, ptr %22, align 8
  %23 = getelementptr inbounds i8, ptr %1, i64 1048
  store ptr %1, ptr %23, align 8
  %24 = getelementptr inbounds i8, ptr %1, i64 1104
  store i32 %2, ptr %24, align 8
  %25 = getelementptr inbounds i8, ptr %1, i64 1112
  store ptr %3, ptr %25, align 8
  %26 = getelementptr inbounds i8, ptr %0, i64 48
  %27 = load i8, ptr %26, align 8
  %.not59 = icmp eq i8 %27, 0
  br i1 %.not59, label %32, label %28

28:                                               ; preds = %17
  %29 = getelementptr inbounds i8, ptr %0, i64 1960
  %30 = load i32, ptr %29, align 8
  %31 = add i32 %30, 1
  br label %32

32:                                               ; preds = %17, %28
  %33 = phi i32 [ 20480, %28 ], [ 8192, %17 ]
  %34 = phi i32 [ %31, %28 ], [ 97, %17 ]
  %35 = load ptr, ptr %0, align 8
  %36 = getelementptr inbounds i8, ptr %1, i64 308
  call void @llvm.lifetime.start.p0(i64 4, ptr nonnull %5)
  %37 = load ptr, ptr %35, align 8
  %38 = getelementptr inbounds i8, ptr %6, i64 8
  call void @llvm.memset.p0.i64(ptr noundef nonnull align 8 dereferenceable(72) %38, i8 0, i64 64, i1 false)
  %39 = getelementptr inbounds i8, ptr %6, i64 52
  store i32 %33, ptr %39, align 4
  %40 = getelementptr inbounds i8, ptr %6, i64 56
  store ptr %7, ptr %40, align 8
  store ptr %35, ptr %6, align 8
  %41 = getelementptr inbounds i8, ptr %6, i64 64
  %42 = load <2 x i16>, ptr %36, align 4
  store <2 x i16> %42, ptr %41, align 8
  %43 = zext i32 %34 to i64
  %44 = call ptr @ft_mem_qrealloc(ptr noundef %37, i64 noundef 8, i64 noundef 0, i64 noundef %43, ptr noundef null, ptr noundef nonnull %5) #20
  %45 = getelementptr inbounds i8, ptr %6, i64 32
  store ptr %44, ptr %45, align 8
  %46 = load i32, ptr %5, align 4
  %.not.i = icmp eq i32 %46, 0
  br i1 %.not.i, label %47, label %cff_parser_init.exit

cff_parser_init.exit:                             ; preds = %32
  call void @llvm.lifetime.end.p0(i64 4, ptr nonnull %5)
  br label %80

47:                                               ; preds = %32
  %48 = getelementptr inbounds i8, ptr %6, i64 48
  store i32 %34, ptr %48, align 8
  %49 = getelementptr inbounds i8, ptr %6, i64 40
  store ptr %44, ptr %49, align 8
  call void @llvm.lifetime.end.p0(i64 4, ptr nonnull %5)
  %50 = getelementptr inbounds i8, ptr %0, i64 24
  %51 = load i64, ptr %50, align 8
  %52 = load i64, ptr %12, align 8
  %53 = add i64 %52, %51
  %54 = call i32 @FT_Stream_Seek(ptr noundef %9, i64 noundef %53) #20
  %.not62 = icmp eq i32 %54, 0
  br i1 %.not62, label %55, label %80

55:                                               ; preds = %47
  %56 = load i64, ptr %15, align 8
  %57 = call i32 @FT_Stream_EnterFrame(ptr noundef %9, i64 noundef %56) #20
  %.not63 = icmp eq i32 %57, 0
  br i1 %.not63, label %58, label %80

58:                                               ; preds = %55
  %59 = getelementptr inbounds i8, ptr %9, i64 64
  %60 = load ptr, ptr %59, align 8
  %61 = getelementptr inbounds i8, ptr %9, i64 72
  %62 = load ptr, ptr %61, align 8
  %63 = call fastcc i32 @cff_parser_run(ptr noundef nonnull %6, ptr noundef %60, ptr noundef %62)
  call void @FT_Stream_ExitFrame(ptr noundef %9) #20
  %.not64 = icmp eq i32 %63, 0
  br i1 %.not64, label %64, label %80

64:                                               ; preds = %58
  %65 = load i8, ptr %7, align 8
  %66 = and i8 %65, -2
  store i8 %66, ptr %7, align 8
  %67 = getelementptr inbounds i8, ptr %1, i64 1008
  %68 = load i64, ptr %67, align 8
  %69 = icmp slt i64 %68, 0
  br i1 %69, label %70, label %72

70:                                               ; preds = %64
  %71 = sub nsw i64 0, %68
  br label %.sink.split

72:                                               ; preds = %64
  %73 = icmp eq i64 %68, 0
  br i1 %73, label %.sink.split, label %74

.sink.split:                                      ; preds = %72, %70
  %.sink = phi i64 [ %71, %70 ], [ 987654321, %72 ]
  store i64 %.sink, ptr %67, align 8
  br label %74

74:                                               ; preds = %.sink.split, %72
  %75 = load i64, ptr %18, align 8
  %or.cond = icmp ugt i64 %75, 1000
  br i1 %or.cond, label %76, label %77

76:                                               ; preds = %74
  store i64 7, ptr %18, align 8
  br label %77

77:                                               ; preds = %74, %76
  %78 = load i64, ptr %19, align 8
  %or.cond65 = icmp ugt i64 %78, 1000
  br i1 %or.cond65, label %79, label %80

79:                                               ; preds = %77
  store i64 1, ptr %19, align 8
  br label %80

80:                                               ; preds = %cff_parser_init.exit, %77, %79, %58, %47, %55
  %.0 = phi i32 [ 0, %cff_parser_init.exit ], [ %54, %47 ], [ %57, %55 ], [ %63, %58 ], [ 0, %79 ], [ 0, %77 ]
  %81 = getelementptr inbounds i8, ptr %1, i64 1120
  %82 = load ptr, ptr %81, align 8
  %83 = getelementptr inbounds i8, ptr %1, i64 1128
  store ptr %82, ptr %83, align 8
  %84 = getelementptr inbounds i8, ptr %1, i64 1136
  store i32 0, ptr %84, align 8
  %85 = load ptr, ptr %6, align 8
  %86 = load ptr, ptr %85, align 8
  %87 = load ptr, ptr %45, align 8
  call void @ft_mem_free(ptr noundef %86, ptr noundef %87) #20
  br label %88

88:                                               ; preds = %4, %14, %80
  %.1 = phi i32 [ %.0, %80 ], [ 0, %14 ], [ 0, %4 ]
  ret i32 %.1
}